; Function Attrs: nofree norecurse nosync nounwind memory(argmem: readwrite) uwtable
define void @my_zcopy(i32 noundef %0, i32 noundef %1, ptr noundef readonly captures(none) %2, ptr noundef readonly captures(none) %3, i32 noundef %4, ptr noundef writeonly captures(none) %5, i32 noundef %6, i32 noundef %7) local_unnamed_addr #4 {
  %9 = shl nsw i32 %6, 1
  %10 = shl nsw i32 %4, 1
  %.not41 = icmp eq i32 %0, 0
  br i1 %.not41, label %._crit_edge43, label %.preheader.lr.ph

.preheader.lr.ph:                                 ; preds = %8
  %.not3839 = icmp eq i32 %1, 0
  %11 = sitofp i32 %7 to double
  %12 = getelementptr inbounds nuw i8, ptr %2, i64 8
  %13 = fneg double %11
  br i1 %.not3839, label %._crit_edge43, label %.preheader.preheader

.preheader.preheader:                             ; preds = %.preheader.lr.ph
  %14 = shl nsw i32 %1, 1
  %15 = zext i32 %14 to i64
  %16 = sext i32 %10 to i64
  %17 = sext i32 %9 to i64
  %18 = zext i32 %0 to i64
  br label %.preheader

.preheader:                                       ; preds = %.preheader.preheader, %._crit_edge
  %indvars.iv46 = phi i64 [ 0, %.preheader.preheader ], [ %indvars.iv.next47, %._crit_edge ]
  %19 = mul nsw i64 %indvars.iv46, %16
  %20 = mul nsw i64 %indvars.iv46, %17
  br label %21

21:                                               ; preds = %.preheader, %21
  %indvars.iv = phi i64 [ 0, %.preheader ], [ %indvars.iv.next, %21 ]
  %22 = load double, ptr %2, align 8, !tbaa !9
  %23 = add nsw i64 %indvars.iv, %19
  %24 = getelementptr inbounds double, ptr %3, i64 %23
  %25 = load double, ptr %24, align 8, !tbaa !9
  %26 = load double, ptr %12, align 8, !tbaa !9
  %27 = fmul double %26, %11
  %28 = or disjoint i64 %23, 1
  %29 = getelementptr inbounds double, ptr %3, i64 %28
  %30 = load double, ptr %29, align 8, !tbaa !9
  %31 = fmul double %27, %30
  %32 = tail call double @llvm.fmuladd.f64(double %22, double %25, double %31)
  %33 = add nsw i64 %indvars.iv, %20
  %34 = getelementptr inbounds double, ptr %5, i64 %33
  store double %32, ptr %34, align 8, !tbaa !9
  %35 = load double, ptr %2, align 8, !tbaa !9
  %36 = fmul double %35, %13
  %37 = load double, ptr %29, align 8, !tbaa !9
  %38 = load double, ptr %12, align 8, !tbaa !9
  %39 = load double, ptr %24, align 8, !tbaa !9
  %40 = fmul double %38, %39
  %41 = tail call double @llvm.fmuladd.f64(double %36, double %37, double %40)
  %42 = or disjoint i64 %33, 1
  %43 = getelementptr inbounds double, ptr %5, i64 %42
  store double %41, ptr %43, align 8, !tbaa !9
  %indvars.iv.next = add nuw nsw i64 %indvars.iv, 2
  %.not38 = icmp eq i64 %indvars.iv.next, %15
  br i1 %.not38, label %._crit_edge, label %21, !llvm.loop !34

._crit_edge:                                      ; preds = %21
  %indvars.iv.next47 = add nuw nsw i64 %indvars.iv46, 1
  %.not = icmp eq i64 %indvars.iv.next47, %18
  br i1 %.not, label %._crit_edge43, label %.preheader, !llvm.loop !35

._crit_edge43:                                    ; preds = %._crit_edge, %.preheader.lr.ph, %8
  ret void
}